; Function Attrs: nounwind uwtable
define void @Abc_NtkAppendToCone(ptr noundef %0, ptr noundef %1, ptr noundef readonly captures(none) %2) local_unnamed_addr #0 {
  %4 = getelementptr i8, ptr %2, i64 8
  %.val40 = load ptr, ptr %4, align 8, !tbaa !28
  %5 = getelementptr i8, ptr %2, i64 4
  %.val35 = load i32, ptr %5, align 4, !tbaa !25
  %6 = tail call ptr @Abc_NtkDfsNodes(ptr noundef %1, ptr noundef %.val40, i32 noundef %.val35) #20
  %7 = tail call ptr @Abc_AigConst1(ptr noundef %0) #20
  %8 = tail call ptr @Abc_AigConst1(ptr noundef %1) #20
  %9 = getelementptr inbounds nuw i8, ptr %8, i64 64
  store ptr %7, ptr %9, align 8, !tbaa !49
  %10 = getelementptr i8, ptr %1, i64 56
  %.val3747 = load ptr, ptr %10, align 8, !tbaa !33
  %11 = getelementptr i8, ptr %.val3747, i64 4
  %.val37.val48 = load i32, ptr %11, align 4, !tbaa !25
  %12 = icmp sgt i32 %.val37.val48, 0
  br i1 %12, label %.lr.ph, label %.critedge.preheader

.lr.ph:                                           ; preds = %3
  %13 = getelementptr inbounds nuw i8, ptr %0, i64 24
  %14 = getelementptr i8, ptr %0, i64 32
  br label %19

.critedge.preheader:                              ; preds = %40, %3
  %15 = getelementptr i8, ptr %6, i64 4
  %.val51 = load i32, ptr %15, align 4, !tbaa !25
  %16 = icmp sgt i32 %.val51, 0
  br i1 %16, label %.lr.ph53, label %.critedge2

.lr.ph53:                                         ; preds = %.critedge.preheader
  %17 = getelementptr i8, ptr %6, i64 8
  %18 = getelementptr inbounds nuw i8, ptr %0, i64 256
  br label %.critedge

19:                                               ; preds = %.lr.ph, %40
  %indvars.iv = phi i64 [ 0, %.lr.ph ], [ %indvars.iv.next, %40 ]
  %.val3750 = phi ptr [ %.val3747, %.lr.ph ], [ %.val37, %40 ]
  %20 = getelementptr i8, ptr %.val3750, i64 8
  %.val38.val = load ptr, ptr %20, align 8, !tbaa !28
  %21 = getelementptr inbounds nuw ptr, ptr %.val38.val, i64 %indvars.iv
  %22 = load ptr, ptr %21, align 8, !tbaa !40
  %23 = tail call fastcc i32 @Abc_NodeIsTravIdCurrent(ptr noundef %22)
  %.not34 = icmp eq i32 %23, 0
  br i1 %.not34, label %40, label %24

24:                                               ; preds = %19
  %25 = load ptr, ptr %13, align 8, !tbaa !42
  %26 = tail call ptr @Abc_ObjName(ptr noundef %22) #20
  %27 = tail call i32 @Nm_ManFindIdByNameTwoTypes(ptr noundef %25, ptr noundef %26, i32 noundef 2, i32 noundef 5) #20
  %28 = icmp eq i32 %27, -1
  br i1 %28, label %29, label %34

29:                                               ; preds = %24
  %30 = tail call ptr @Abc_NtkCreateObj(ptr noundef nonnull %0, i32 noundef 2) #20
  %31 = getelementptr inbounds nuw i8, ptr %22, i64 64
  store ptr %30, ptr %31, align 8, !tbaa !49
  %32 = tail call ptr @Abc_ObjName(ptr noundef %22) #20
  %33 = tail call ptr @Abc_ObjAssignName(ptr noundef %30, ptr noundef %32, ptr noundef null) #20
  br label %40

34:                                               ; preds = %24
  %.val39 = load ptr, ptr %14, align 8, !tbaa !29
  %35 = getelementptr i8, ptr %.val39, i64 8
  %.val39.val = load ptr, ptr %35, align 8, !tbaa !28
  %36 = sext i32 %27 to i64
  %37 = getelementptr inbounds ptr, ptr %.val39.val, i64 %36
  %38 = load ptr, ptr %37, align 8, !tbaa !40
  %39 = getelementptr inbounds nuw i8, ptr %22, i64 64
  store ptr %38, ptr %39, align 8, !tbaa !49
  br label %40

40:                                               ; preds = %29, %34, %19
  %indvars.iv.next = add nuw nsw i64 %indvars.iv, 1
  %.val37 = load ptr, ptr %10, align 8, !tbaa !33
  %41 = getelementptr i8, ptr %.val37, i64 4
  %.val37.val = load i32, ptr %41, align 4, !tbaa !25
  %42 = sext i32 %.val37.val to i64
  %43 = icmp slt i64 %indvars.iv.next, %42
  br i1 %43, label %19, label %.critedge.preheader, !llvm.loop !173

.critedge:                                        ; preds = %.lr.ph53, %.critedge
  %indvars.iv55 = phi i64 [ 0, %.lr.ph53 ], [ %indvars.iv.next56, %.critedge ]
  %.val36 = load ptr, ptr %17, align 8, !tbaa !28
  %44 = getelementptr inbounds nuw ptr, ptr %.val36, i64 %indvars.iv55
  %45 = load ptr, ptr %44, align 8, !tbaa !40
  %46 = load ptr, ptr %18, align 8, !tbaa !41
  %.val.i = load ptr, ptr %45, align 8, !tbaa !75
  %47 = getelementptr i8, ptr %45, i64 32
  %.val2.i = load ptr, ptr %47, align 8, !tbaa !78
  %48 = getelementptr i8, ptr %.val.i, i64 32
  %.val.val.i = load ptr, ptr %48, align 8, !tbaa !29
  %.val2.val.i = load i32, ptr %.val2.i, align 4, !tbaa !57
  %49 = getelementptr i8, ptr %.val.val.i, i64 8
  %.val.val.val.i = load ptr, ptr %49, align 8, !tbaa !28
  %50 = sext i32 %.val2.val.i to i64
  %51 = getelementptr inbounds ptr, ptr %.val.val.val.i, i64 %50
  %52 = load ptr, ptr %51, align 8, !tbaa !40
  %53 = getelementptr inbounds nuw i8, ptr %52, i64 64
  %54 = load ptr, ptr %53, align 8, !tbaa !49
  %55 = getelementptr i8, ptr %45, i64 20
  %.val3.i = load i32, ptr %55, align 4
  %56 = lshr i32 %.val3.i, 10
  %57 = and i32 %56, 1
  %58 = ptrtoint ptr %54 to i64
  %59 = zext nneg i32 %57 to i64
  %60 = xor i64 %59, %58
  %61 = inttoptr i64 %60 to ptr
  %62 = getelementptr i8, ptr %.val2.i, i64 4
  %.val2.val.i44 = load i32, ptr %62, align 4, !tbaa !57
  %63 = sext i32 %.val2.val.i44 to i64
  %64 = getelementptr inbounds ptr, ptr %.val.val.val.i, i64 %63
  %65 = load ptr, ptr %64, align 8, !tbaa !40
  %66 = getelementptr inbounds nuw i8, ptr %65, i64 64
  %67 = load ptr, ptr %66, align 8, !tbaa !49
  %68 = lshr i32 %.val3.i, 11
  %69 = and i32 %68, 1
  %70 = ptrtoint ptr %67 to i64
  %71 = zext nneg i32 %69 to i64
  %72 = xor i64 %70, %71
  %73 = inttoptr i64 %72 to ptr
  %74 = tail call ptr @Abc_AigAnd(ptr noundef %46, ptr noundef %61, ptr noundef %73) #20
  %75 = getelementptr inbounds nuw i8, ptr %45, i64 64
  store ptr %74, ptr %75, align 8, !tbaa !49
  %indvars.iv.next56 = add nuw nsw i64 %indvars.iv55, 1
  %.val = load i32, ptr %15, align 4, !tbaa !25
  %76 = sext i32 %.val to i64
  %77 = icmp slt i64 %indvars.iv.next56, %76
  br i1 %77, label %.critedge, label %.critedge2, !llvm.loop !174

.critedge2:                                       ; preds = %.critedge, %.critedge.preheader
  %78 = getelementptr inbounds nuw i8, ptr %6, i64 8
  %79 = load ptr, ptr %78, align 8, !tbaa !28
  %.not.i = icmp eq ptr %79, null
  br i1 %.not.i, label %Vec_PtrFree.exit, label %80

80:                                               ; preds = %.critedge2
  tail call void @free(ptr noundef nonnull %79) #20
  br label %Vec_PtrFree.exit

Vec_PtrFree.exit:                                 ; preds = %.critedge2, %80
  tail call void @free(ptr noundef nonnull %6) #20
  %81 = tail call i32 @Abc_NtkCheck(ptr noundef %0) #20
  %.not = icmp eq i32 %81, 0
  br i1 %.not, label %82, label %85

82:                                               ; preds = %Vec_PtrFree.exit
  %83 = load ptr, ptr @stdout, align 8, !tbaa !100
  %84 = tail call i64 @fwrite(ptr nonnull @.str.17, i64 49, i64 1, ptr %83)
  br label %85

85:                                               ; preds = %82, %Vec_PtrFree.exit
  ret void
}